target datalayout = "e-m:e-p270:32:32-p271:32:32-p272:64:64-i64:64-i128:128-f80:128-n8:16:32:64-S128"
target triple = "x86_64-unknown-linux-gnu"

%struct.aiQuatKey = type { double, %class.aiQuaterniont }
%class.aiQuaterniont = type { float, float, float, float }

; Function Attrs: mustprogress nounwind uwtable
define linkonce_odr noundef float @_ZSt4fabsf(float noundef %__x) #0 comdat {
entry:
  %__x.addr = alloca float, align 4
  store float %__x, ptr %__x.addr, align 4
  %0 = load float, ptr %__x.addr, align 4
  %1 = call float @llvm.fabs.f32(float %0)
  ret float %1
}

; Function Attrs: mustprogress uwtable
define linkonce_odr hidden noundef zeroext i1 @_Z14EpsilonComparefff(float noundef %n, float noundef %s, float noundef %epsilon) #3 comdat {
entry:
  %n.addr = alloca float, align 4
  %s.addr = alloca float, align 4
  %epsilon.addr = alloca float, align 4
  store float %n, ptr %n.addr, align 4
  store float %s, ptr %s.addr, align 4
  store float %epsilon, ptr %epsilon.addr, align 4
  %0 = load float, ptr %n.addr, align 4
  %1 = load float, ptr %s.addr, align 4
  %sub = fsub float %0, %1
  %call = call noundef float @_ZSt4fabsf(float noundef %sub)
  %2 = load float, ptr %epsilon.addr, align 4
  %cmp = fcmp ogt float %call, %2
  ret i1 %cmp
}

; Function Attrs: mustprogress uwtable
define hidden noundef zeroext i1 @_Z14EpsilonCompareI9aiQuatKeyEbRKT_S3_f(ptr noundef nonnull align 8 dereferenceable(24) %n, ptr noundef nonnull align 8 dereferenceable(24) %s, float noundef %epsilon) #3 {
entry:
  %n.addr = alloca ptr, align 8
  %s.addr = alloca ptr, align 8
  %epsilon.addr = alloca float, align 4
  store ptr %n, ptr %n.addr, align 8
  store ptr %s, ptr %s.addr, align 8
  store float %epsilon, ptr %epsilon.addr, align 4
  %0 = load ptr, ptr %n.addr, align 8
  %mValue = getelementptr inbounds %struct.aiQuatKey, ptr %0, i32 0, i32 1
  %x = getelementptr inbounds %class.aiQuaterniont, ptr %mValue, i32 0, i32 1
  %1 = load float, ptr %x, align 4
  %2 = load ptr, ptr %s.addr, align 8
  %mValue1 = getelementptr inbounds %struct.aiQuatKey, ptr %2, i32 0, i32 1
  %x2 = getelementptr inbounds %class.aiQuaterniont, ptr %mValue1, i32 0, i32 1
  %3 = load float, ptr %x2, align 4
  %4 = load float, ptr %epsilon.addr, align 4
  %call = call noundef zeroext i1 @_Z14EpsilonComparefff(float noundef %1, float noundef %3, float noundef %4)
  br i1 %call, label %land.lhs.true, label %land.end

land.lhs.true:                                    ; preds = %entry
  %5 = load ptr, ptr %n.addr, align 8
  %mValue3 = getelementptr inbounds %struct.aiQuatKey, ptr %5, i32 0, i32 1
  %y = getelementptr inbounds %class.aiQuaterniont, ptr %mValue3, i32 0, i32 2
  %6 = load float, ptr %y, align 8
  %7 = load ptr, ptr %s.addr, align 8
  %mValue4 = getelementptr inbounds %struct.aiQuatKey, ptr %7, i32 0, i32 1
  %y5 = getelementptr inbounds %class.aiQuaterniont, ptr %mValue4, i32 0, i32 2
  %8 = load float, ptr %y5, align 8
  %9 = load float, ptr %epsilon.addr, align 4
  %call6 = call noundef zeroext i1 @_Z14EpsilonComparefff(float noundef %6, float noundef %8, float noundef %9)
  br i1 %call6, label %land.lhs.true7, label %land.end

land.lhs.true7:                                   ; preds = %land.lhs.true
  %10 = load ptr, ptr %n.addr, align 8
  %mValue8 = getelementptr inbounds %struct.aiQuatKey, ptr %10, i32 0, i32 1
  %z = getelementptr inbounds %class.aiQuaterniont, ptr %mValue8, i32 0, i32 3
  %11 = load float, ptr %z, align 4
  %12 = load ptr, ptr %s.addr, align 8
  %mValue9 = getelementptr inbounds %struct.aiQuatKey, ptr %12, i32 0, i32 1
  %z10 = getelementptr inbounds %class.aiQuaterniont, ptr %mValue9, i32 0, i32 3
  %13 = load float, ptr %z10, align 4
  %14 = load float, ptr %epsilon.addr, align 4
  %call11 = call noundef zeroext i1 @_Z14EpsilonComparefff(float noundef %11, float noundef %13, float noundef %14)
  br i1 %call11, label %land.rhs, label %land.end

land.rhs:                                         ; preds = %land.lhs.true7
  %15 = load ptr, ptr %n.addr, align 8
  %mValue12 = getelementptr inbounds %struct.aiQuatKey, ptr %15, i32 0, i32 1
  %w = getelementptr inbounds %class.aiQuaterniont, ptr %mValue12, i32 0, i32 0
  %16 = load float, ptr %w, align 8
  %17 = load ptr, ptr %s.addr, align 8
  %mValue13 = getelementptr inbounds %struct.aiQuatKey, ptr %17, i32 0, i32 1
  %w14 = getelementptr inbounds %class.aiQuaterniont, ptr %mValue13, i32 0, i32 0
  %18 = load float, ptr %w14, align 8
  %19 = load float, ptr %epsilon.addr, align 4
  %call15 = call noundef zeroext i1 @_Z14EpsilonComparefff(float noundef %16, float noundef %18, float noundef %19)
  br label %land.end

land.end:                                         ; preds = %land.rhs, %land.lhs.true7, %land.lhs.true, %entry
  %20 = phi i1 [ false, %land.lhs.true7 ], [ false, %land.lhs.true ], [ false, %entry ], [ %call15, %land.rhs ]
  ret i1 %20
}