; Function Attrs: mustprogress nofree norecurse nosync nounwind willreturn memory(argmem: read) uwtable
define hidden noundef zeroext i1 @_Z14EpsilonCompareI9aiQuatKeyEbRKT_S3_f(ptr nocapture noundef nonnull readonly align 8 dereferenceable(24) %n, ptr nocapture noundef nonnull readonly align 8 dereferenceable(24) %s, float noundef %epsilon) local_unnamed_addr #8 {
entry:
  %mValue = getelementptr inbounds i8, ptr %n, i64 8
  %x = getelementptr inbounds i8, ptr %n, i64 12
  %0 = load float, ptr %x, align 4
  %mValue1 = getelementptr inbounds i8, ptr %s, i64 8
  %x2 = getelementptr inbounds i8, ptr %s, i64 12
  %1 = load float, ptr %x2, align 4
  %sub.i = fsub float %0, %1
  %2 = tail call noundef float @llvm.fabs.f32(float %sub.i)
  %cmp.i = fcmp ogt float %2, %epsilon
  br i1 %cmp.i, label %land.lhs.true, label %land.end

land.lhs.true:                                    ; preds = %entry
  %y = getelementptr inbounds i8, ptr %n, i64 16
  %3 = load float, ptr %y, align 8
  %y5 = getelementptr inbounds i8, ptr %s, i64 16
  %4 = load float, ptr %y5, align 8
  %sub.i10 = fsub float %3, %4
  %5 = tail call noundef float @llvm.fabs.f32(float %sub.i10)
  %cmp.i11 = fcmp ogt float %5, %epsilon
  br i1 %cmp.i11, label %land.lhs.true7, label %land.end

land.lhs.true7:                                   ; preds = %land.lhs.true
  %z = getelementptr inbounds i8, ptr %n, i64 20
  %6 = load float, ptr %z, align 4
  %z10 = getelementptr inbounds i8, ptr %s, i64 20
  %7 = load float, ptr %z10, align 4
  %sub.i12 = fsub float %6, %7
  %8 = tail call noundef float @llvm.fabs.f32(float %sub.i12)
  %cmp.i13 = fcmp ogt float %8, %epsilon
  br i1 %cmp.i13, label %land.rhs, label %land.end

land.rhs:                                         ; preds = %land.lhs.true7
  %9 = load float, ptr %mValue, align 8
  %10 = load float, ptr %mValue1, align 8
  %sub.i14 = fsub float %9, %10
  %11 = tail call noundef float @llvm.fabs.f32(float %sub.i14)
  %cmp.i15 = fcmp ogt float %11, %epsilon
  br label %land.end

land.end:                                         ; preds = %land.rhs, %land.lhs.true7, %land.lhs.true, %entry
  %12 = phi i1 [ false, %land.lhs.true7 ], [ false, %land.lhs.true ], [ false, %entry ], [ %cmp.i15, %land.rhs ]
  ret i1 %12
}